target datalayout = "e-m:e-p270:32:32-p271:32:32-p272:64:64-i64:64-i128:128-f80:128-n8:16:32:64-S128"
target triple = "x86_64-unknown-linux-gnu"

; Function Attrs: nounwind uwtable
define dso_local i32 @anetCloexec(i32 noundef %fd) #0 {
entry:
  %retval = alloca i32, align 4
  %fd.addr = alloca i32, align 4
  %r = alloca i32, align 4
  %flags = alloca i32, align 4
  store i32 %fd, ptr %fd.addr, align 4
  br label %do.body

do.body:                                          ; preds = %land.end, %entry
  %0 = load i32, ptr %fd.addr, align 4
  %call = call i32 (i32, i32, ...) @fcntl64(i32 noundef %0, i32 noundef 1)
  store i32 %call, ptr %r, align 4
  br label %do.cond

do.cond:                                          ; preds = %do.body
  %1 = load i32, ptr %r, align 4
  %cmp = icmp eq i32 %1, -1
  br i1 %cmp, label %land.rhs, label %land.end

land.rhs:                                         ; preds = %do.cond
  %call1 = call ptr @__errno_location() #8
  %2 = load i32, ptr %call1, align 4
  %cmp2 = icmp eq i32 %2, 4
  br label %land.end

land.end:                                         ; preds = %land.rhs, %do.cond
  %3 = phi i1 [ false, %do.cond ], [ %cmp2, %land.rhs ]
  br i1 %3, label %do.body, label %do.end, !llvm.loop !5

do.end:                                           ; preds = %land.end
  %4 = load i32, ptr %r, align 4
  %cmp3 = icmp eq i32 %4, -1
  br i1 %cmp3, label %if.then, label %lor.lhs.false

lor.lhs.false:                                    ; preds = %do.end
  %5 = load i32, ptr %r, align 4
  %and = and i32 %5, 1
  %tobool = icmp ne i32 %and, 0
  br i1 %tobool, label %if.then, label %if.end

if.then:                                          ; preds = %lor.lhs.false, %do.end
  %6 = load i32, ptr %r, align 4
  store i32 %6, ptr %retval, align 4
  br label %return

if.end:                                           ; preds = %lor.lhs.false
  %7 = load i32, ptr %r, align 4
  %or = or i32 %7, 1
  store i32 %or, ptr %flags, align 4
  br label %do.body4

do.body4:                                         ; preds = %land.end11, %if.end
  %8 = load i32, ptr %fd.addr, align 4
  %9 = load i32, ptr %flags, align 4
  %call5 = call i32 (i32, i32, ...) @fcntl64(i32 noundef %8, i32 noundef 2, i32 noundef %9)
  store i32 %call5, ptr %r, align 4
  br label %do.cond6

do.cond6:                                         ; preds = %do.body4
  %10 = load i32, ptr %r, align 4
  %cmp7 = icmp eq i32 %10, -1
  br i1 %cmp7, label %land.rhs8, label %land.end11

land.rhs8:                                        ; preds = %do.cond6
  %call9 = call ptr @__errno_location() #8
  %11 = load i32, ptr %call9, align 4
  %cmp10 = icmp eq i32 %11, 4
  br label %land.end11

land.end11:                                       ; preds = %land.rhs8, %do.cond6
  %12 = phi i1 [ false, %do.cond6 ], [ %cmp10, %land.rhs8 ]
  br i1 %12, label %do.body4, label %do.end12, !llvm.loop !7

do.end12:                                         ; preds = %land.end11
  %13 = load i32, ptr %r, align 4
  store i32 %13, ptr %retval, align 4
  br label %return

return:                                           ; preds = %do.end12, %if.then
  %14 = load i32, ptr %retval, align 4
  ret i32 %14
}