; Function Attrs: nounwind uwtable
define dso_local i32 @anetCloexec(i32 noundef %fd) local_unnamed_addr #0 {
entry:
  br label %do.body

do.body:                                          ; preds = %land.rhs, %entry
  %call = tail call i32 (i32, i32, ...) @fcntl64(i32 noundef %fd, i32 noundef 1) #10
  %cmp = icmp eq i32 %call, -1
  br i1 %cmp, label %land.rhs, label %lor.lhs.false.critedge

land.rhs:                                         ; preds = %do.body
  %call1 = tail call ptr @__errno_location() #11
  %0 = load i32, ptr %call1, align 4
  %cmp2 = icmp eq i32 %0, 4
  br i1 %cmp2, label %do.body, label %return, !llvm.loop !5

lor.lhs.false.critedge:                           ; preds = %do.body
  %and.old = and i32 %call, 1
  %tobool.not.old = icmp eq i32 %and.old, 0
  br i1 %tobool.not.old, label %if.end, label %return

if.end:                                           ; preds = %lor.lhs.false.critedge
  %or = or disjoint i32 %call, 1
  br label %do.body4

do.body4:                                         ; preds = %land.rhs8, %if.end
  %call5 = tail call i32 (i32, i32, ...) @fcntl64(i32 noundef %fd, i32 noundef 2, i32 noundef %or) #10
  %cmp7 = icmp eq i32 %call5, -1
  br i1 %cmp7, label %land.rhs8, label %return

land.rhs8:                                        ; preds = %do.body4
  %call9 = tail call ptr @__errno_location() #11
  %1 = load i32, ptr %call9, align 4
  %cmp10 = icmp eq i32 %1, 4
  br i1 %cmp10, label %do.body4, label %return, !llvm.loop !7

return:                                           ; preds = %land.rhs, %land.rhs8, %do.body4, %lor.lhs.false.critedge
  %retval.0 = phi i32 [ %call, %lor.lhs.false.critedge ], [ -1, %land.rhs8 ], [ %call5, %do.body4 ], [ -1, %land.rhs ]
  ret i32 %retval.0
}